Certificate:
    Data:
        Version: 3 (0x2)
        Serial Number: 4097 (0x1001)
    Signature Algorithm: md5WithRSAEncryption
        Issuer: C=US, ST=UTAH, O=UUTAH, CN=CertAuth
        Validity
            Not Before: Mar 29 16:16:42 2022 GMT
            Not After : Mar 29 16:16:42 2023 GMT
        Subject: C=US, ST=UTAH, O=UUTAH, CN=Client
        Subject Public Key Info:
            Public Key Algorithm: rsaEncryption
                Public-Key: (4096 bit)
                Modulus:
                    00:c2:3b:38:0e:58:11:91:9f:ec:ca:47:74:03:62:
                    e9:09:b4:13:a3:12:b6:8d:72:65:b4:e8:63:03:45:
                    2e:f0:4e:7e:5a:b3:92:67:a8:a0:ce:2c:4b:34:8a:
                    74:c6:d3:cb:6c:c1:5f:65:61:4a:3d:0f:7e:0c:e1:
                    d2:81:70:9f:9f:bc:1d:1a:5b:0b:82:68:86:51:1e:
                    81:ff:a1:ed:8b:66:a5:bf:3e:d1:b3:fb:5b:5e:52:
                    f4:ba:1c:19:a8:40:98:66:56:2d:c8:77:51:ed:67:
                    38:b0:f2:67:2f:dc:7d:ec:93:d5:74:2b:96:aa:6d:
                    b8:29:2b:bf:2f:2b:df:13:62:a2:6f:fc:b2:89:85:
                    22:28:eb:77:bd:0a:cd:9a:54:eb:db:a5:74:0a:70:
                    42:5e:c6:d0:36:0f:28:88:2e:27:f2:f6:4a:3a:f5:
                    9d:47:c0:01:65:81:79:9c:28:b8:33:aa:c9:9a:a2:
                    04:00:06:dc:92:7c:a1:2c:14:5e:19:ae:f9:ce:47:
                    b2:47:af:97:2a:d9:ef:51:19:79:a0:11:00:07:81:
                    1c:d8:4a:d9:48:fa:e5:a3:d3:85:70:d7:b2:8e:c0:
                    a4:ec:2d:65:eb:6d:23:08:84:2c:bc:eb:13:47:03:
                    7c:fd:a8:fe:0e:d0:68:1e:3c:80:f3:fd:d7:59:8a:
                    dd:a8:44:a3:99:6a:91:3e:9b:ff:2e:55:76:22:c6:
                    36:14:c2:a1:c5:b6:52:57:a9:b6:e0:9e:1c:04:a0:
                    57:37:15:cb:90:97:3c:d8:d1:26:8d:0e:ab:3c:28:
                    a0:88:59:44:ad:2d:f0:6b:36:d0:be:b6:cd:9a:b0:
                    f2:36:97:be:c7:ae:74:d0:4b:85:e2:04:12:20:34:
                    a5:3c:b0:79:41:07:a5:7e:d5:56:68:ac:62:27:6a:
                    5a:bb:66:0e:20:f2:74:51:93:19:95:cb:19:9e:b2:
                    a4:90:d6:39:2c:5e:c3:25:06:2d:bd:79:0d:05:24:
                    69:82:09:56:98:32:11:8f:0a:05:61:1f:30:d3:5c:
                    b8:af:44:e5:43:cc:fd:76:1e:8d:7a:38:3c:c0:e5:
                    bf:45:8e:a4:b7:50:c1:ab:3f:a1:6a:51:f9:58:03:
                    d2:04:1d:cc:ab:8d:99:f7:d1:48:3f:22:4b:70:8c:
                    4f:13:df:75:2f:94:66:30:1d:0f:31:b0:54:70:4c:
                    b3:30:75:ca:03:fe:80:60:b4:8d:84:83:92:b4:72:
                    91:ef:eb:b5:f6:e1:1c:ea:48:d3:67:c1:a9:c7:3e:
                    1a:fe:70:cc:bd:40:34:73:de:6c:71:c0:41:82:37:
                    c4:9d:e8:ff:39:aa:be:92:ac:ee:df:6f:bd:55:e0:
                    7e:8c:9d
                Exponent: 65537 (0x10001)
        X509v3 extensions:
            X509v3 Basic Constraints: 
                CA:FALSE
            Netscape Comment: 
                OpenSSL Generated Certificate
            X509v3 Subject Key Identifier: 
                61:88:41:38:3A:E9:C3:32:51:1B:1C:8C:91:C4:16:4E:A3:3C:D1:21
            X509v3 Authority Key Identifier: 
                DirName:/C=US/ST=UTAH/O=UUTAH/CN=CertAuth
                serial:D9:97:E2:DB:71:73:1E:8F

    Signature Algorithm: md5WithRSAEncryption
         4e:51:d7:14:b0:9f:e9:64:6d:3b:df:d0:53:f8:cb:73:e7:af:
         1b:4c:9d:fc:88:0a:dc:76:c7:de:fa:c9:ac:ea:f5:a4:b4:d7:
         bc:6b:4b:80:4c:f5:f1:7a:21:c6:f4:ba:11:1e:1b:de:0a:5c:
         5e:82:3a:e4:77:77:b5:4e:33:77:b4:99:c8:b9:1e:fe:a6:0c:
         5a:0b:13:aa:66:fc:13:6b:64:8b:8c:e6:c1:b3:40:b9:92:43:
         e1:21:23:97:2d:f7:2a:58:92:59:37:d0:24:9b:62:21:0f:ff:
         62:0a:00:79:6f:ee:c1:1e:e9:00:08:e1:a7:6f:bf:be:48:e0:
         0e:9f:37:db:b0:bf:a1:f5:c7:8e:7f:79:13:6b:c1:72:a3:3b:
         28:78:14:89:32:5b:9b:d8:f4:fe:b6:f1:6d:1e:b4:88:a1:ce:
         15:82:16:e9:36:e2:d3:c7:8a:d6:0d:c9:97:6a:d4:86:ac:2d:
         9f:3a:77:be:d5:6c:20:b1:c4:be:f5:14:f4:af:9d:83:dd:1f:
         ba:19:6a:f1:cf:d0:7e:79:53:27:ed:7c:a4:4b:7a:87:64:c2:
         00:7c:11:a0:a1:8f:05:e0:70:e9:d8:fc:59:a9:49:6c:57:76:
         f8:c5:08:09:a8:a7:4c:5e:bd:94:1d:93:a9:cf:27:2e:04:e6:
         28:07:e2:27:87:01:fe:0a:82:86:16:53:0f:5a:48:f8:2f:ed:
         d7:c6:1b:e1:35:82:31:8d:02:3b:1d:ca:f1:db:4a:89:15:33:
         5b:65:d8:3a:57:db:7a:c6:f9:60:02:c6:89:3c:65:43:7b:37:
         bc:a8:77:af:89:2d:ab:f9:89:00:2e:2c:fe:be:01:4f:0f:b9:
         65:c5:bb:11:3d:f9:17:93:bc:d3:0a:56:23:86:f6:c1:85:1f:
         de:90:ca:ed:1e:96:32:93:16:1e:b5:95:bd:6b:66:b3:70:47:
         79:b6:2e:fc:1f:fb:cc:de:46:89:fe:54:39:1c:e8:e8:5b:2d:
         31:cd:58:95:fa:92:a4:08:79:ed:e6:73:93:9d:a1:05:f6:89:
         be:66:9d:40:79:93:a6:8e:95:56:26:e9:4d:00:cb:24:a1:45:
         b6:02:3b:60:3c:0b:9d:e1:b5:af:7b:ff:e9:54:49:d4:96:eb:
         05:78:f7:7e:3c:a6:f0:a2:c0:27:75:5e:c1:b4:60:0e:dc:2a:
         2e:c9:45:15:6f:55:16:65:0c:c9:f3:82:6f:bc:60:53:3f:cc:
         64:a3:3d:6a:70:0b:05:c5:d1:00:87:51:62:2e:89:9e:99:fa:
         33:49:07:38:7b:23:3f:07:74:99:f5:63:38:63:c7:e7:09:63:
         e9:50:28:d7:fc:68:c4:b5
-----BEGIN CERTIFICATE-----
MIIFrzCCA5egAwIBAgICEAEwDQYJKoZIhvcNAQEEBQAwPzELMAkGA1UEBhMCVVMx
DTALBgNVBAgMBFVUQUgxDjAMBgNVBAoMBVVVVEFIMREwDwYDVQQDDAhDZXJ0QXV0
aDAeFw0yMjAzMjkxNjE2NDJaFw0yMzAzMjkxNjE2NDJaMD0xCzAJBgNVBAYTAlVT
MQ0wCwYDVQQIDARVVEFIMQ4wDAYDVQQKDAVVVVRBSDEPMA0GA1UEAwwGQ2xpZW50
MIICIjANBgkqhkiG9w0BAQEFAAOCAg8AMIICCgKCAgEAwjs4DlgRkZ/sykd0A2Lp
CbQToxK2jXJltOhjA0Uu8E5+WrOSZ6igzixLNIp0xtPLbMFfZWFKPQ9+DOHSgXCf
n7wdGlsLgmiGUR6B/6Hti2alvz7Rs/tbXlL0uhwZqECYZlYtyHdR7Wc4sPJnL9x9
7JPVdCuWqm24KSu/LyvfE2Kib/yyiYUiKOt3vQrNmlTr26V0CnBCXsbQNg8oiC4n
8vZKOvWdR8ABZYF5nCi4M6rJmqIEAAbcknyhLBReGa75zkeyR6+XKtnvURl5oBEA
B4Ec2ErZSPrlo9OFcNeyjsCk7C1l620jCIQsvOsTRwN8/aj+DtBoHjyA8/3XWYrd
qESjmWqRPpv/LlV2IsY2FMKhxbZSV6m24J4cBKBXNxXLkJc82NEmjQ6rPCigiFlE
rS3wazbQvrbNmrDyNpe+x6500EuF4gQSIDSlPLB5QQelftVWaKxiJ2pau2YOIPJ0
UZMZlcsZnrKkkNY5LF7DJQYtvXkNBSRpgglWmDIRjwoFYR8w01y4r0TlQ8z9dh6N
ejg8wOW/RY6kt1DBqz+halH5WAPSBB3Mq42Z99FIPyJLcIxPE991L5RmMB0PMbBU
cEyzMHXKA/6AYLSNhIOStHKR7+u19uEc6kjTZ8Gpxz4a/nDMvUA0c95sccBBgjfE
nej/Oaq+kqzu32+9VeB+jJ0CAwEAAaOBtjCBszAJBgNVHRMEAjAAMCwGCWCGSAGG
+EIBDQQfFh1PcGVuU1NMIEdlbmVyYXRlZCBDZXJ0aWZpY2F0ZTAdBgNVHQ4EFgQU
YYhBODrpwzJRGxyMkcQWTqM80SEwWQYDVR0jBFIwUKFDpEEwPzELMAkGA1UEBhMC
VVMxDTALBgNVBAgMBFVUQUgxDjAMBgNVBAoMBVVVVEFIMREwDwYDVQQDDAhDZXJ0
QXV0aIIJANmX4ttxcx6PMA0GCSqGSIb3DQEBBAUAA4ICAQBOUdcUsJ/pZG0739BT
+Mtz568bTJ38iArcdsfe+sms6vWktNe8a0uATPXxeiHG9LoRHhveClxegjrkd3e1
TjN3tJnIuR7+pgxaCxOqZvwTa2SLjObBs0C5kkPhISOXLfcqWJJZN9Akm2IhD/9i
CgB5b+7BHukACOGnb7++SOAOnzfbsL+h9ceOf3kTa8FyozsoeBSJMlub2PT+tvFt
HrSIoc4VghbpNuLTx4rWDcmXatSGrC2fOne+1WwgscS+9RT0r52D3R+6GWrxz9B+
eVMn7XykS3qHZMIAfBGgoY8F4HDp2PxZqUlsV3b4xQgJqKdMXr2UHZOpzycuBOYo
B+InhwH+CoKGFlMPWkj4L+3XxhvhNYIxjQI7Hcrx20qJFTNbZdg6V9t6xvlgAsaJ
PGVDeze8qHeviS2r+YkALiz+vgFPD7llxbsRPfkXk7zTClYjhvbBhR/ekMrtHpYy
kxYetZW9a2azcEd5ti78H/vM3kaJ/lQ5HOjoWy0xzViV+pKkCHnt5nOTnaEF9om+
Zp1AeZOmjpVWJulNAMskoUW2AjtgPAud4bWve//pVEnUlusFePd+PKbwosAndV7B
tGAO3CouyUUVb1UWZQzJ84JvvGBTP8xkoz1qcAsFxdEAh1FiLomemfozSQc4eyM/
B3SZ9WM4Y8fnCWPpUCjX/GjEtQ==
-----END CERTIFICATE-----
