Certificate:
    Data:
        Version: 3 (0x2)
        Serial Number: 4096 (0x1000)
    Signature Algorithm: md5WithRSAEncryption
        Issuer: C=US, ST=UTAH, O=UUTAH, CN=CertAuth
        Validity
            Not Before: Mar 29 16:14:10 2022 GMT
            Not After : Mar 29 16:14:10 2023 GMT
        Subject: C=US, ST=UTAH, O=UUTAH, CN=msdServer
        Subject Public Key Info:
            Public Key Algorithm: rsaEncryption
                Public-Key: (4096 bit)
                Modulus:
                    00:ce:da:89:7e:3b:56:04:36:4c:e4:56:b3:7b:79:
                    df:68:8f:91:c5:9c:42:e1:08:1c:32:ad:c8:ef:61:
                    70:cc:6b:83:fd:df:f7:3f:9d:b8:17:bc:32:41:4a:
                    d2:1c:b0:f8:05:d2:b5:28:45:cd:1e:77:6f:3a:71:
                    a5:eb:43:52:02:1c:51:4b:12:26:88:ac:72:3b:1c:
                    e5:f2:9c:47:e3:6d:e4:fe:18:f6:94:52:b1:ba:4e:
                    fb:b8:41:b7:4d:98:e5:eb:04:14:78:d6:12:42:c1:
                    24:ed:00:68:8f:18:21:f4:e8:0e:fb:e1:82:ef:3d:
                    c1:15:2d:f0:e1:01:a2:40:bc:12:a5:54:73:e3:4c:
                    c3:67:52:7b:e7:5f:0f:a9:47:6d:9a:14:95:07:87:
                    6b:58:ec:e7:3f:34:ec:1d:40:05:80:2c:20:55:a3:
                    e8:c6:2c:28:8b:f7:ed:74:59:2e:4b:4a:a2:0e:1e:
                    ab:6e:d3:24:21:d9:8a:07:b3:f4:d0:fe:32:1c:ae:
                    00:21:58:4d:ea:14:0a:65:d0:72:35:87:bf:4d:30:
                    23:94:4e:26:fd:8b:b0:c8:f6:b7:00:53:bd:ed:cb:
                    b0:ef:fd:c5:36:7a:55:e4:b7:44:e1:70:d1:4b:ac:
                    8e:45:1a:b2:db:a2:f4:d6:dd:6c:fe:dc:2b:3b:1e:
                    d2:3e:a7:49:d4:55:40:ed:4b:48:c5:58:e7:10:54:
                    65:41:4b:a2:ac:ee:85:ed:5a:7b:cb:72:32:3b:38:
                    8c:25:f9:5a:22:73:5e:22:cc:5f:8e:a1:7d:a5:f9:
                    9d:71:d7:e8:ea:46:4d:4a:04:0e:03:23:2d:5e:0a:
                    30:d9:4f:05:70:55:95:3f:d0:96:48:67:79:f0:c7:
                    c5:5b:8d:95:21:32:85:46:f1:ab:a4:a1:fb:e4:4f:
                    5b:1b:7b:f7:70:16:e4:44:69:20:ca:77:56:7c:c7:
                    51:8b:da:ba:d8:05:74:37:74:f6:f0:e2:54:2e:cf:
                    46:97:db:a3:7f:01:2a:c9:95:25:51:e4:af:98:82:
                    0d:72:b1:2b:23:21:a9:ae:d3:99:2c:d1:33:9f:cb:
                    ab:d2:99:57:4f:04:89:da:5f:bc:ce:db:c2:36:6f:
                    f2:1a:7a:a9:bc:13:68:74:ee:fc:77:f4:29:92:9e:
                    87:0b:37:44:f7:d8:31:1d:5f:e3:70:16:7a:9e:2e:
                    2e:65:13:f0:72:28:77:3d:d2:8c:60:cc:f8:1d:84:
                    97:7f:56:5b:e0:a1:52:74:35:04:c4:11:d8:de:dd:
                    a7:84:8b:02:ee:5b:f6:b0:f4:d5:94:14:73:94:3e:
                    fe:44:f3:55:4f:5e:73:33:69:65:69:7f:f3:7a:54:
                    ce:d1:87
                Exponent: 65537 (0x10001)
        X509v3 extensions:
            X509v3 Basic Constraints: 
                CA:FALSE
            Netscape Comment: 
                OpenSSL Generated Certificate
            X509v3 Subject Key Identifier: 
                1E:90:E7:F9:05:ED:50:0B:DE:53:FA:0F:FC:6C:B5:00:A2:70:F3:69
            X509v3 Authority Key Identifier: 
                DirName:/C=US/ST=UTAH/O=UUTAH/CN=CertAuth
                serial:D9:97:E2:DB:71:73:1E:8F

    Signature Algorithm: md5WithRSAEncryption
         7e:0a:9d:28:c6:c0:d5:81:34:3f:a0:f0:b8:fe:83:3f:93:c9:
         05:c3:d7:7b:bd:39:f4:61:b1:45:3f:18:b7:1b:18:6d:81:b0:
         c5:94:d6:eb:57:5b:f6:ef:6f:c7:2a:82:fa:e4:a1:30:ed:7e:
         d9:90:0f:87:ca:f4:da:b7:0e:94:5d:cf:e5:b8:d2:d1:9a:f7:
         3f:29:e7:6e:3f:43:78:8f:88:15:6c:b1:6d:96:09:ca:15:86:
         13:50:89:86:f7:ff:58:3c:58:78:d7:09:a8:4b:84:59:46:2e:
         f6:0f:2c:a9:4f:2b:84:e8:ac:a1:1e:58:bc:4a:ba:70:89:f5:
         2d:bf:5f:5b:94:f7:ed:00:1c:10:a2:b4:27:fb:59:f8:f8:3d:
         25:2b:a4:5a:58:77:14:11:f8:19:b3:8b:a2:a8:18:56:59:d1:
         2d:ec:a9:b7:ed:3d:29:93:38:b5:eb:a7:cc:98:9e:22:b8:0f:
         f7:eb:41:a0:57:fb:0b:2e:e5:7a:4d:b1:49:a7:c8:41:d2:f7:
         1e:59:41:5f:71:d1:4b:9d:3d:a1:e8:06:3d:42:4e:23:77:c2:
         81:82:26:0d:ac:06:f3:b2:db:4f:01:8a:80:3c:dc:68:54:c7:
         84:73:7e:e2:3a:68:7f:d1:60:d2:ef:a6:57:a5:3e:4d:a4:32:
         0c:87:66:c7:ed:d9:ad:06:45:e6:b5:3a:39:8f:16:73:8d:7a:
         56:8d:fb:d6:6e:b8:3e:0e:eb:6f:aa:06:a6:67:4a:f4:8b:e1:
         e7:82:05:dc:78:1c:6b:94:d7:bf:53:dd:08:25:af:f8:97:03:
         74:e8:d3:3c:e8:97:10:bc:3e:3a:04:14:e0:e9:59:c7:11:c0:
         71:e7:2c:79:15:46:ec:55:a0:ec:78:40:df:87:ae:21:72:a9:
         f4:bf:8b:9f:e5:ad:49:c9:11:97:11:ef:f6:5f:85:b9:d8:c2:
         59:e7:88:42:de:0a:70:4d:0f:c0:cd:63:e8:d8:a3:36:a3:0d:
         fa:86:4b:a2:e9:f6:fe:9b:85:ba:19:a0:fc:31:46:8b:13:b4:
         08:94:cc:ae:ea:45:3c:d5:92:80:c5:91:cf:1f:ba:32:0b:36:
         60:8b:48:1b:cd:ef:15:04:43:64:12:50:e5:f8:e0:6d:3c:ba:
         ab:4d:7c:7b:c3:25:8e:6d:3a:d7:3c:94:9a:e7:ae:81:ca:46:
         bb:58:c6:bb:d6:4b:24:c2:d7:98:f3:59:e7:91:aa:17:3a:30:
         b3:2b:9a:22:14:14:80:d5:05:17:9e:52:0b:81:e5:90:a6:1b:
         07:28:ea:9e:bc:01:b0:79:89:18:9a:36:b2:2c:23:65:22:b9:
         7d:14:c3:ea:8b:c0:c9:ab
-----BEGIN CERTIFICATE-----
MIIFsjCCA5qgAwIBAgICEAAwDQYJKoZIhvcNAQEEBQAwPzELMAkGA1UEBhMCVVMx
DTALBgNVBAgMBFVUQUgxDjAMBgNVBAoMBVVVVEFIMREwDwYDVQQDDAhDZXJ0QXV0
aDAeFw0yMjAzMjkxNjE0MTBaFw0yMzAzMjkxNjE0MTBaMEAxCzAJBgNVBAYTAlVT
MQ0wCwYDVQQIDARVVEFIMQ4wDAYDVQQKDAVVVVRBSDESMBAGA1UEAwwJbXNkU2Vy
dmVyMIICIjANBgkqhkiG9w0BAQEFAAOCAg8AMIICCgKCAgEAztqJfjtWBDZM5Faz
e3nfaI+RxZxC4QgcMq3I72FwzGuD/d/3P524F7wyQUrSHLD4BdK1KEXNHndvOnGl
60NSAhxRSxImiKxyOxzl8pxH423k/hj2lFKxuk77uEG3TZjl6wQUeNYSQsEk7QBo
jxgh9OgO++GC7z3BFS3w4QGiQLwSpVRz40zDZ1J7518PqUdtmhSVB4drWOznPzTs
HUAFgCwgVaPoxiwoi/ftdFkuS0qiDh6rbtMkIdmKB7P00P4yHK4AIVhN6hQKZdBy
NYe/TTAjlE4m/YuwyPa3AFO97cuw7/3FNnpV5LdE4XDRS6yORRqy26L01t1s/twr
Ox7SPqdJ1FVA7UtIxVjnEFRlQUuirO6F7Vp7y3IyOziMJflaInNeIsxfjqF9pfmd
cdfo6kZNSgQOAyMtXgow2U8FcFWVP9CWSGd58MfFW42VITKFRvGrpKH75E9bG3v3
cBbkRGkgyndWfMdRi9q62AV0N3T28OJULs9Gl9ujfwEqyZUlUeSvmIINcrErIyGp
rtOZLNEzn8ur0plXTwSJ2l+8ztvCNm/yGnqpvBNodO78d/Qpkp6HCzdE99gxHV/j
cBZ6ni4uZRPwcih3PdKMYMz4HYSXf1Zb4KFSdDUExBHY3t2nhIsC7lv2sPTVlBRz
lD7+RPNVT15zM2llaX/zelTO0YcCAwEAAaOBtjCBszAJBgNVHRMEAjAAMCwGCWCG
SAGG+EIBDQQfFh1PcGVuU1NMIEdlbmVyYXRlZCBDZXJ0aWZpY2F0ZTAdBgNVHQ4E
FgQUHpDn+QXtUAveU/oP/Gy1AKJw82kwWQYDVR0jBFIwUKFDpEEwPzELMAkGA1UE
BhMCVVMxDTALBgNVBAgMBFVUQUgxDjAMBgNVBAoMBVVVVEFIMREwDwYDVQQDDAhD
ZXJ0QXV0aIIJANmX4ttxcx6PMA0GCSqGSIb3DQEBBAUAA4ICAQB+Cp0oxsDVgTQ/
oPC4/oM/k8kFw9d7vTn0YbFFPxi3GxhtgbDFlNbrV1v272/HKoL65KEw7X7ZkA+H
yvTatw6UXc/luNLRmvc/KeduP0N4j4gVbLFtlgnKFYYTUImG9/9YPFh41wmoS4RZ
Ri72DyypTyuE6KyhHli8SrpwifUtv19blPftABwQorQn+1n4+D0lK6RaWHcUEfgZ
s4uiqBhWWdEt7Km37T0pkzi166fMmJ4iuA/360GgV/sLLuV6TbFJp8hB0vceWUFf
cdFLnT2h6AY9Qk4jd8KBgiYNrAbzsttPAYqAPNxoVMeEc37iOmh/0WDS76ZXpT5N
pDIMh2bH7dmtBkXmtTo5jxZzjXpWjfvWbrg+DutvqgamZ0r0i+HnggXceBxrlNe/
U90IJa/4lwN06NM86JcQvD46BBTg6VnHEcBx5yx5FUbsVaDseEDfh64hcqn0v4uf
5a1JyRGXEe/2X4W52MJZ54hC3gpwTQ/AzWPo2KM2ow36hkui6fb+m4W6GaD8MUaL
E7QIlMyu6kU81ZKAxZHPH7oyCzZgi0gbze8VBENkElDl+OBtPLqrTXx7wyWObTrX
PJSa566Byka7WMa71kskwteY81nnkaoXOjCzK5oiFBSA1QUXnlILgeWQphsHKOqe
vAGweYkYmjayLCNlIrl9FMPqi8DJqw==
-----END CERTIFICATE-----
